target datalayout = "e-m:e-p270:32:32-p271:32:32-p272:64:64-i64:64-i128:128-f80:128-n8:16:32:64-S128"
target triple = "x86_64-pc-linux-gnu"

%union.SourceSpan = type { i64 }
%union.anon.2 = type { ptr }
%union.anon.3 = type { i16 }
%union.anon.4 = type { %struct.FuncDecl }
%struct.FuncDecl = type { i32, [4 x i8], %struct.Signature_, i32, i32, %union.anon.11 }
%struct.Signature_ = type <{ %struct.CalleeAttributes, i16, i8, i32, i32, [4 x i8], ptr }>
%struct.CalleeAttributes = type { i8 }
%union.anon.11 = type { %struct.anon.12 }
%struct.anon.12 = type { i16, %union.anon.13 }
%union.anon.13 = type { ptr }
%struct.Decl_ = type { ptr, ptr, %union.SourceSpan, i64, %union.anon.2, i32, %union.anon.3, i64, ptr, ptr, ptr, %union.anon.4 }
%struct.VHeader_ = type { i32, i32, [0 x i8] }
%struct.anon.5 = type { ptr, ptr, %union.anon.6 }
%union.anon.6 = type { %struct.BitStructDecl }
%struct.BitStructDecl = type { ptr, ptr, i8 }
%struct.StructDecl = type { i32, ptr, i32, i16 }

; Function Attrs: nounwind uwtable
define dso_local i32 @decl_count_elements(ptr noundef %0) #0 {
  %2 = alloca i32, align 4
  %3 = alloca ptr, align 8
  %4 = alloca ptr, align 8
  %5 = alloca i32, align 4
  %6 = alloca ptr, align 8
  %7 = alloca i32, align 4
  %8 = alloca ptr, align 8
  %9 = alloca i32, align 4
  %10 = alloca i32, align 4
  %11 = alloca ptr, align 8
  store ptr %0, ptr %6, align 8
  store i32 0, ptr %7, align 4
  %12 = load ptr, ptr %6, align 8
  %13 = getelementptr inbounds %struct.Decl_, ptr %12, i32 0, i32 11
  %14 = getelementptr inbounds %struct.anon.5, ptr %13, i32 0, i32 2
  %15 = getelementptr inbounds %struct.StructDecl, ptr %14, i32 0, i32 1
  %16 = load ptr, ptr %15, align 8
  store ptr %16, ptr %8, align 8
  %17 = load ptr, ptr %8, align 8
  store ptr %17, ptr %3, align 8
  %18 = load ptr, ptr %3, align 8
  %19 = icmp ne ptr %18, null
  br i1 %19, label %21, label %20

20:                                               ; preds = %1
  store i32 0, ptr %2, align 4
  br label %26

21:                                               ; preds = %1
  %22 = load ptr, ptr %3, align 8
  store ptr %22, ptr %4, align 8
  %23 = load ptr, ptr %4, align 8
  %24 = getelementptr inbounds %struct.VHeader_, ptr %23, i64 -1
  %25 = load i32, ptr %24, align 4
  store i32 %25, ptr %2, align 4
  br label %26

26:                                               ; preds = %21, %20
  %27 = load i32, ptr %2, align 4
  store i32 %27, ptr %9, align 4
  %28 = load i32, ptr %9, align 4
  %29 = icmp eq i32 %28, 0
  br i1 %29, label %30, label %31

30:                                               ; preds = %26
  store i32 0, ptr %5, align 4
  br label %74

31:                                               ; preds = %26
  %32 = load ptr, ptr %6, align 8
  %33 = getelementptr inbounds %struct.Decl_, ptr %32, i32 0, i32 3
  %34 = load i64, ptr %33, align 8
  %35 = and i64 %34, 127
  %36 = trunc i64 %35 to i32
  %37 = icmp eq i32 %36, 25
  br i1 %37, label %38, label %39

38:                                               ; preds = %31
  store i32 1, ptr %9, align 4
  br label %39

39:                                               ; preds = %38, %31
  store i32 0, ptr %10, align 4
  br label %40

40:                                               ; preds = %69, %39
  %41 = load i32, ptr %10, align 4
  %42 = load i32, ptr %9, align 4
  %43 = icmp ult i32 %41, %42
  br i1 %43, label %44, label %72

44:                                               ; preds = %40
  %45 = load ptr, ptr %8, align 8
  %46 = load i32, ptr %10, align 4
  %47 = zext i32 %46 to i64
  %48 = getelementptr inbounds ptr, ptr %45, i64 %47
  %49 = load ptr, ptr %48, align 8
  store ptr %49, ptr %11, align 8
  %50 = load ptr, ptr %11, align 8
  %51 = getelementptr inbounds %struct.Decl_, ptr %50, i32 0, i32 3
  %52 = load i64, ptr %51, align 8
  %53 = and i64 %52, 127
  %54 = trunc i64 %53 to i32
  %55 = icmp ne i32 %54, 26
  br i1 %55, label %56, label %66

56:                                               ; preds = %44
  %57 = load ptr, ptr %11, align 8
  %58 = getelementptr inbounds %struct.Decl_, ptr %57, i32 0, i32 0
  %59 = load ptr, ptr %58, align 8
  %60 = icmp ne ptr %59, null
  br i1 %60, label %66, label %61

61:                                               ; preds = %56
  %62 = load ptr, ptr %11, align 8
  %63 = call i32 @decl_count_elements(ptr noundef %62)
  %64 = load i32, ptr %7, align 4
  %65 = add nsw i32 %64, %63
  store i32 %65, ptr %7, align 4
  br label %69

66:                                               ; preds = %56, %44
  %67 = load i32, ptr %7, align 4
  %68 = add nsw i32 %67, 1
  store i32 %68, ptr %7, align 4
  br label %69

69:                                               ; preds = %66, %61
  %70 = load i32, ptr %10, align 4
  %71 = add i32 %70, 1
  store i32 %71, ptr %10, align 4
  br label %40, !llvm.loop !14

72:                                               ; preds = %40
  %73 = load i32, ptr %7, align 4
  store i32 %73, ptr %5, align 4
  br label %74

74:                                               ; preds = %72, %30
  %75 = load i32, ptr %5, align 4
  ret i32 %75
}