; Function Attrs: nofree nosync nounwind memory(read, inaccessiblemem: none) uwtable
define dso_local i32 @decl_count_elements(ptr nocapture noundef readonly %0) local_unnamed_addr #8 {
  %2 = getelementptr inbounds i8, ptr %0, i64 104
  %3 = load ptr, ptr %2, align 8
  %.not = icmp eq ptr %3, null
  br i1 %.not, label %.thread, label %4

4:                                                ; preds = %1
  %5 = getelementptr inbounds i8, ptr %3, i64 -8
  %6 = load i32, ptr %5, align 4
  %7 = icmp eq i32 %6, 0
  br i1 %7, label %.thread, label %8

8:                                                ; preds = %4
  %9 = getelementptr inbounds i8, ptr %0, i64 24
  %10 = load i64, ptr %9, align 8
  %11 = and i64 %10, 127
  %12 = icmp ne i64 %11, 25
  %13 = zext i32 %6 to i64
  br label %14

14:                                               ; preds = %8, %27
  %indvars.iv = phi i64 [ 0, %8 ], [ %indvars.iv.next, %27 ]
  %.02227 = phi i32 [ 0, %8 ], [ %.1, %27 ]
  %15 = getelementptr inbounds ptr, ptr %3, i64 %indvars.iv
  %16 = load ptr, ptr %15, align 8
  %17 = getelementptr inbounds i8, ptr %16, i64 24
  %18 = load i64, ptr %17, align 8
  %19 = and i64 %18, 127
  %.not24 = icmp eq i64 %19, 26
  br i1 %.not24, label %25, label %20

20:                                               ; preds = %14
  %21 = load ptr, ptr %16, align 8
  %.not25 = icmp eq ptr %21, null
  br i1 %.not25, label %22, label %25

22:                                               ; preds = %20
  %23 = tail call i32 @decl_count_elements(ptr noundef nonnull %16)
  %24 = add nsw i32 %23, %.02227
  br label %27

25:                                               ; preds = %20, %14
  %26 = add nsw i32 %.02227, 1
  br label %27

27:                                               ; preds = %25, %22
  %.1 = phi i32 [ %26, %25 ], [ %24, %22 ]
  %indvars.iv.next = add nuw nsw i64 %indvars.iv, 1
  %28 = icmp ult i64 %indvars.iv.next, %13
  %29 = select i1 %12, i1 %28, i1 false
  br i1 %29, label %14, label %.thread, !llvm.loop !14

.thread:                                          ; preds = %27, %1, %4
  %.021 = phi i32 [ 0, %4 ], [ 0, %1 ], [ %.1, %27 ]
  ret i32 %.021
}